; Function Attrs: mustprogress uwtable
define noundef i32 @_ZNK4pkpy3Str5indexERKS0_i(ptr nocapture noundef nonnull readonly align 8 dereferenceable(32) %0, ptr nocapture noundef nonnull readonly align 8 dereferenceable(32) %1, i32 noundef %2) local_unnamed_addr #3 align 2 {
  %4 = getelementptr inbounds i8, ptr %0, i64 8
  %5 = load ptr, ptr %4, align 8
  %6 = sext i32 %2 to i64
  %7 = getelementptr inbounds i8, ptr %5, i64 %6
  %8 = load i32, ptr %0, align 8
  %9 = sext i32 %8 to i64
  %10 = getelementptr inbounds i8, ptr %5, i64 %9
  %11 = getelementptr inbounds i8, ptr %1, i64 8
  %12 = load ptr, ptr %11, align 8
  %13 = load i32, ptr %1, align 8
  %14 = sext i32 %13 to i64
  %15 = getelementptr inbounds i8, ptr %12, i64 %14
  %16 = tail call noundef ptr @_ZSt8__searchIPcS0_N9__gnu_cxx5__ops19_Iter_equal_to_iterEET_S4_S4_T0_S5_T1_(ptr noundef %7, ptr noundef %10, ptr noundef %12, ptr noundef %15)
  %17 = load ptr, ptr %4, align 8
  %18 = load i32, ptr %0, align 8
  %19 = sext i32 %18 to i64
  %20 = getelementptr inbounds i8, ptr %17, i64 %19
  %21 = icmp eq ptr %16, %20
  %22 = ptrtoint ptr %16 to i64
  %23 = ptrtoint ptr %17 to i64
  %24 = sub i64 %22, %23
  %25 = trunc i64 %24 to i32
  %.0 = select i1 %21, i32 -1, i32 %25
  ret i32 %.0
}